target datalayout = "e-m:e-p270:32:32-p271:32:32-p272:64:64-i64:64-i128:128-f80:128-n8:16:32:64-S128"
target triple = "x86_64-pc-linux-gnu"

%"struct.boost::log::v2_mt_posix::once_block_flag" = type { i8 }
%"class.boost::log::v2_mt_posix::aux::id" = type { i64 }
%"class.boost::log::v2_mt_posix::aux::once_block_sentry" = type { ptr }

@_ZN5boost3log11v2_mt_posix3aux11this_thread9anonymous5g_keyE = hidden global i32 0, align 4
@_ZZN5boost3log11v2_mt_posix3aux11this_thread6get_idEvE30_boost_log_once_block_flag_210 = internal global %"struct.boost::log::v2_mt_posix::once_block_flag" zeroinitializer, align 1
@.str = private unnamed_addr constant [116 x i8] c"generated/home/dtcxzyw/WorkSpace/Projects/compilers/llvm-opt-benchmark/bench/boost/boost/libs/log/src/thread_id.cpp\00", align 1
@.str.1 = private unnamed_addr constant [57 x i8] c"Failed to create a thread-specific storage for thread id\00", align 1

; Function Attrs: mustprogress nounwind uwtable
define linkonce_odr hidden void @_ZN5boost3log11v2_mt_posix3aux2idINS2_6threadEEC2Em(ptr noundef nonnull align 8 dereferenceable(8) %0, i64 noundef %1) unnamed_addr #7 comdat align 2 {
  %3 = alloca ptr, align 8
  %4 = alloca i64, align 8
  store ptr %0, ptr %3, align 8, !tbaa !3
  store i64 %1, ptr %4, align 8, !tbaa !9
  %5 = load ptr, ptr %3, align 8
  %6 = getelementptr inbounds nuw %"class.boost::log::v2_mt_posix::aux::id", ptr %5, i32 0, i32 0
  %7 = load i64, ptr %4, align 8, !tbaa !9
  store i64 %7, ptr %6, align 8, !tbaa !18
  ret void
}

; Function Attrs: inlinehint mustprogress nounwind uwtable
define linkonce_odr hidden i64 @_ZN5boost3log11v2_mt_posix3aux9anonymous11get_id_implEv() #6 comdat {
  %1 = alloca %"class.boost::log::v2_mt_posix::aux::id", align 8
  %2 = alloca i64, align 8
  %3 = alloca i64, align 8
  call void @llvm.lifetime.start.p0(i64 8, ptr %2) #3
  store i64 0, ptr %2, align 8, !tbaa !9
  call void @llvm.lifetime.start.p0(i64 8, ptr %3) #3
  %4 = call i64 @pthread_self() #19
  store i64 %4, ptr %3, align 8, !tbaa !9
  call void @llvm.memcpy.p0.p0.i64(ptr align 8 %2, ptr align 8 %3, i64 8, i1 false)
  %5 = load i64, ptr %2, align 8, !tbaa !9
  call void @_ZN5boost3log11v2_mt_posix3aux2idINS2_6threadEEC2Em(ptr noundef nonnull align 8 dereferenceable(8) %1, i64 noundef %5) #3
  call void @llvm.lifetime.end.p0(i64 8, ptr %3) #3
  call void @llvm.lifetime.end.p0(i64 8, ptr %2) #3
  %6 = getelementptr inbounds nuw %"class.boost::log::v2_mt_posix::aux::id", ptr %1, i32 0, i32 0
  %7 = load i64, ptr %6, align 8
  ret i64 %7
}

; Function Attrs: mustprogress nounwind uwtable
define linkonce_odr hidden void @_ZN5boost3log11v2_mt_posix3aux17once_block_sentryD2Ev(ptr noundef nonnull align 8 dereferenceable(8) %0) unnamed_addr #7 comdat align 2 {
  %2 = alloca ptr, align 8
  store ptr %0, ptr %2, align 8, !tbaa !3
  %3 = load ptr, ptr %2, align 8
  %4 = getelementptr inbounds nuw %"class.boost::log::v2_mt_posix::aux::once_block_sentry", ptr %3, i32 0, i32 0
  %5 = load ptr, ptr %4, align 8, !tbaa !33
  %6 = getelementptr inbounds nuw %"struct.boost::log::v2_mt_posix::once_block_flag", ptr %5, i32 0, i32 0
  %7 = load i8, ptr %6, align 1, !tbaa !35
  %8 = zext i8 %7 to i32
  %9 = icmp ne i32 %8, 2
  %10 = zext i1 %9 to i64
  %11 = call i64 @llvm.expect.i64(i64 %10, i64 0)
  %12 = icmp ne i64 %11, 0
  br i1 %12, label %13, label %14

13:                                               ; preds = %1
  call void @_ZN5boost3log11v2_mt_posix3aux17once_block_sentry8rollbackEv(ptr noundef nonnull align 8 dereferenceable(8) %3) #3
  br label %14

14:                                               ; preds = %13, %1
  ret void
}

; Function Attrs: mustprogress nounwind uwtable
define linkonce_odr hidden noundef zeroext i1 @_ZNK5boost3log11v2_mt_posix3aux17once_block_sentry8executedEv(ptr noundef nonnull align 8 dereferenceable(8) %0) #7 comdat align 2 {
  %2 = alloca ptr, align 8
  store ptr %0, ptr %2, align 8, !tbaa !3
  %3 = load ptr, ptr %2, align 8
  %4 = getelementptr inbounds nuw %"class.boost::log::v2_mt_posix::aux::once_block_sentry", ptr %3, i32 0, i32 0
  %5 = load ptr, ptr %4, align 8, !tbaa !33
  %6 = getelementptr inbounds nuw %"struct.boost::log::v2_mt_posix::once_block_flag", ptr %5, i32 0, i32 0
  %7 = load i8, ptr %6, align 1, !tbaa !35
  %8 = zext i8 %7 to i32
  %9 = icmp eq i32 %8, 2
  br i1 %9, label %12, label %10

10:                                               ; preds = %1
  %11 = call noundef zeroext i1 @_ZNK5boost3log11v2_mt_posix3aux17once_block_sentry16enter_once_blockEv(ptr noundef nonnull align 8 dereferenceable(8) %3) #3
  br label %12

12:                                               ; preds = %10, %1
  %13 = phi i1 [ true, %1 ], [ %11, %10 ]
  ret i1 %13
}

; Function Attrs: mustprogress nounwind uwtable
define linkonce_odr hidden void @_ZN5boost3log11v2_mt_posix3aux17once_block_sentryC2ERNS1_15once_block_flagE(ptr noundef nonnull align 8 dereferenceable(8) %0, ptr noundef nonnull align 1 dereferenceable(1) %1) unnamed_addr #7 comdat align 2 {
  %3 = alloca ptr, align 8
  %4 = alloca ptr, align 8
  store ptr %0, ptr %3, align 8, !tbaa !3
  store ptr %1, ptr %4, align 8, !tbaa !3
  %5 = load ptr, ptr %3, align 8
  %6 = getelementptr inbounds nuw %"class.boost::log::v2_mt_posix::aux::once_block_sentry", ptr %5, i32 0, i32 0
  %7 = load ptr, ptr %4, align 8, !tbaa !3
  store ptr %7, ptr %6, align 8, !tbaa !3
  ret void
}

; Function Attrs: mustprogress uwtable
define noundef nonnull align 8 dereferenceable(8) ptr @_ZN5boost3log11v2_mt_posix3aux11this_thread6get_idEv() #5 personality ptr @__gxx_personality_v0 {
  %1 = alloca %"class.boost::log::v2_mt_posix::aux::once_block_sentry", align 8
  %2 = alloca i32, align 4
  %3 = alloca ptr, align 8
  %4 = alloca i32, align 4
  %5 = alloca ptr, align 8
  call void @llvm.lifetime.start.p0(i64 8, ptr %1) #3
  call void @_ZN5boost3log11v2_mt_posix3aux17once_block_sentryC2ERNS1_15once_block_flagE(ptr noundef nonnull align 8 dereferenceable(8) %1, ptr noundef nonnull align 1 dereferenceable(1) @_ZZN5boost3log11v2_mt_posix3aux11this_thread6get_idEvE30_boost_log_once_block_flag_210) #3
  br label %6

6:                                                ; preds = %25, %0
  %7 = call noundef zeroext i1 @_ZNK5boost3log11v2_mt_posix3aux17once_block_sentry8executedEv(ptr noundef nonnull align 8 dereferenceable(8) %1) #3
  %8 = xor i1 %7, true
  %9 = zext i1 %8 to i64
  %10 = call i64 @llvm.expect.i64(i64 %9, i64 0)
  %11 = icmp ne i64 %10, 0
  br i1 %11, label %13, label %12

12:                                               ; preds = %6
  call void @_ZN5boost3log11v2_mt_posix3aux17once_block_sentryD2Ev(ptr noundef nonnull align 8 dereferenceable(8) %1) #3
  call void @llvm.lifetime.end.p0(i64 8, ptr %1) #3
  br label %26

13:                                               ; preds = %6
  call void @llvm.lifetime.start.p0(i64 4, ptr %2) #3
  %14 = call i32 @pthread_key_create(ptr noundef @_ZN5boost3log11v2_mt_posix3aux11this_thread9anonymous5g_keyE, ptr noundef @_ZN5boost3log11v2_mt_posix3aux11this_thread9anonymous7deleterEPv) #3
  store i32 %14, ptr %2, align 4, !tbaa !31
  %15 = load i32, ptr %2, align 4, !tbaa !31
  %16 = icmp ne i32 %15, 0
  br i1 %16, label %17, label %24

17:                                               ; preds = %13
  %18 = load i32, ptr %2, align 4, !tbaa !31
  invoke void @_ZN5boost3log11v2_mt_posix12system_error6throw_EPKcmS4_i(ptr noundef @.str, i64 noundef 214, ptr noundef @.str.1, i32 noundef %18) #17
          to label %19 unwind label %20

19:                                               ; preds = %17
  unreachable

20:                                               ; preds = %17
  %21 = landingpad { ptr, i32 }
          cleanup
  %22 = extractvalue { ptr, i32 } %21, 0
  store ptr %22, ptr %3, align 8
  %23 = extractvalue { ptr, i32 } %21, 1
  store i32 %23, ptr %4, align 4
  call void @llvm.lifetime.end.p0(i64 4, ptr %2) #3
  call void @_ZN5boost3log11v2_mt_posix3aux17once_block_sentryD2Ev(ptr noundef nonnull align 8 dereferenceable(8) %1) #3
  call void @llvm.lifetime.end.p0(i64 8, ptr %1) #3
  br label %49

24:                                               ; preds = %13
  call void @llvm.lifetime.end.p0(i64 4, ptr %2) #3
  br label %25

25:                                               ; preds = %24
  call void @_ZN5boost3log11v2_mt_posix3aux17once_block_sentry6commitEv(ptr noundef nonnull align 8 dereferenceable(8) %1) #3
  br label %6, !llvm.loop !32

26:                                               ; preds = %12
  call void @llvm.lifetime.start.p0(i64 8, ptr %5) #3
  %27 = load i32, ptr @_ZN5boost3log11v2_mt_posix3aux11this_thread9anonymous5g_keyE, align 4, !tbaa !31
  %28 = call ptr @pthread_getspecific(i32 noundef %27) #3
  store ptr %28, ptr %5, align 8, !tbaa !3
  %29 = load ptr, ptr %5, align 8, !tbaa !3
  %30 = icmp ne ptr %29, null
  %31 = xor i1 %30, true
  %32 = zext i1 %31 to i64
  %33 = call i64 @llvm.expect.i64(i64 %32, i64 0)
  %34 = icmp ne i64 %33, 0
  br i1 %34, label %35, label %47

35:                                               ; preds = %26
  %36 = call noalias noundef nonnull ptr @_Znwm(i64 noundef 8) #18
  %37 = invoke i64 @_ZN5boost3log11v2_mt_posix3aux9anonymous11get_id_implEv()
          to label %38 unwind label %43

38:                                               ; preds = %35
  %39 = getelementptr inbounds nuw %"class.boost::log::v2_mt_posix::aux::id", ptr %36, i32 0, i32 0
  store i64 %37, ptr %39, align 8
  store ptr %36, ptr %5, align 8, !tbaa !3
  %40 = load i32, ptr @_ZN5boost3log11v2_mt_posix3aux11this_thread9anonymous5g_keyE, align 4, !tbaa !31
  %41 = load ptr, ptr %5, align 8, !tbaa !3
  %42 = call i32 @pthread_setspecific(i32 noundef %40, ptr noundef %41) #3
  br label %47

43:                                               ; preds = %35
  %44 = landingpad { ptr, i32 }
          cleanup
  %45 = extractvalue { ptr, i32 } %44, 0
  store ptr %45, ptr %3, align 8
  %46 = extractvalue { ptr, i32 } %44, 1
  store i32 %46, ptr %4, align 4
  call void @_ZdlPvm(ptr noundef %36, i64 noundef 8) #16
  call void @llvm.lifetime.end.p0(i64 8, ptr %5) #3
  br label %49

47:                                               ; preds = %38, %26
  %48 = load ptr, ptr %5, align 8, !tbaa !3
  call void @llvm.lifetime.end.p0(i64 8, ptr %5) #3
  ret ptr %48

49:                                               ; preds = %43, %20
  %50 = load ptr, ptr %3, align 8
  %51 = load i32, ptr %4, align 4
  %52 = insertvalue { ptr, i32 } poison, ptr %50, 0
  %53 = insertvalue { ptr, i32 } %52, i32 %51, 1
  resume { ptr, i32 } %53
}