; Function Attrs: mustprogress uwtable
define noundef nonnull align 8 dereferenceable(8) ptr @_ZN5boost3log11v2_mt_posix3aux11this_thread6get_idEv() local_unnamed_addr #4 personality ptr @__gxx_personality_v0 {
  %1 = alloca %"class.boost::log::v2_mt_posix::aux::once_block_sentry", align 8
  call void @llvm.lifetime.start.p0(i64 8, ptr nonnull %1) #14
  store ptr @_ZZN5boost3log11v2_mt_posix3aux11this_thread6get_idEvE30_boost_log_once_block_flag_210, ptr %1, align 8, !tbaa !25
  %2 = load i8, ptr @_ZZN5boost3log11v2_mt_posix3aux11this_thread6get_idEvE30_boost_log_once_block_flag_210, align 1, !tbaa !26
  %3 = icmp eq i8 %2, 2
  br i1 %3, label %_ZN5boost3log11v2_mt_posix3aux17once_block_sentryD2Ev.exit, label %_ZNK5boost3log11v2_mt_posix3aux17once_block_sentry8executedEv.exit

_ZNK5boost3log11v2_mt_posix3aux17once_block_sentry8executedEv.exit: ; preds = %0, %18
  %4 = call noundef zeroext i1 @_ZNK5boost3log11v2_mt_posix3aux17once_block_sentry16enter_once_blockEv(ptr noundef nonnull align 8 dereferenceable(8) %1) #14
  br i1 %4, label %_ZNK5boost3log11v2_mt_posix3aux17once_block_sentry8executedEv.exit.thread, label %9, !prof !28

_ZNK5boost3log11v2_mt_posix3aux17once_block_sentry8executedEv.exit.thread: ; preds = %_ZNK5boost3log11v2_mt_posix3aux17once_block_sentry8executedEv.exit
  %.pre.pre = load ptr, ptr %1, align 8, !tbaa !29
  %.pre10.pre = load i8, ptr %.pre.pre, align 1, !tbaa !26
  %5 = icmp eq i8 %.pre10.pre, 2
  br i1 %5, label %_ZN5boost3log11v2_mt_posix3aux17once_block_sentryD2Ev.exit, label %6, !prof !31

6:                                                ; preds = %_ZNK5boost3log11v2_mt_posix3aux17once_block_sentry8executedEv.exit.thread
  call void @_ZN5boost3log11v2_mt_posix3aux17once_block_sentry8rollbackEv(ptr noundef nonnull align 8 dereferenceable(8) %1) #14
  br label %_ZN5boost3log11v2_mt_posix3aux17once_block_sentryD2Ev.exit

_ZN5boost3log11v2_mt_posix3aux17once_block_sentryD2Ev.exit: ; preds = %18, %0, %_ZNK5boost3log11v2_mt_posix3aux17once_block_sentry8executedEv.exit.thread, %6
  call void @llvm.lifetime.end.p0(i64 8, ptr nonnull %1) #14
  %7 = load i32, ptr @_ZN5boost3log11v2_mt_posix3aux11this_thread9anonymous5g_keyE, align 4, !tbaa !32
  %8 = call ptr @pthread_getspecific(i32 noundef %7) #14
  %.not = icmp eq ptr %8, null
  br i1 %.not, label %22, label %27, !prof !33

9:                                                ; preds = %_ZNK5boost3log11v2_mt_posix3aux17once_block_sentry8executedEv.exit
  %10 = call i32 @pthread_key_create(ptr noundef nonnull @_ZN5boost3log11v2_mt_posix3aux11this_thread9anonymous5g_keyE, ptr noundef nonnull @_ZN5boost3log11v2_mt_posix3aux11this_thread9anonymous7deleterEPv) #14
  %.not7 = icmp eq i32 %10, 0
  br i1 %.not7, label %18, label %11

11:                                               ; preds = %9
  invoke void @_ZN5boost3log11v2_mt_posix12system_error6throw_EPKcmS4_i(ptr noundef nonnull @.str, i64 noundef 214, ptr noundef nonnull @.str.1, i32 noundef %10) #17
          to label %12 unwind label %13

12:                                               ; preds = %11
  unreachable

13:                                               ; preds = %11
  %14 = landingpad { ptr, i32 }
          cleanup
  %15 = load ptr, ptr %1, align 8, !tbaa !29
  %16 = load i8, ptr %15, align 1, !tbaa !26
  %.not.i8 = icmp eq i8 %16, 2
  br i1 %.not.i8, label %_ZN5boost3log11v2_mt_posix3aux17once_block_sentryD2Ev.exit9, label %17, !prof !34

17:                                               ; preds = %13
  call void @_ZN5boost3log11v2_mt_posix3aux17once_block_sentry8rollbackEv(ptr noundef nonnull align 8 dereferenceable(8) %1) #14
  br label %_ZN5boost3log11v2_mt_posix3aux17once_block_sentryD2Ev.exit9

_ZN5boost3log11v2_mt_posix3aux17once_block_sentryD2Ev.exit9: ; preds = %13, %17
  call void @llvm.lifetime.end.p0(i64 8, ptr nonnull %1) #14
  resume { ptr, i32 } %14

18:                                               ; preds = %9
  call void @_ZN5boost3log11v2_mt_posix3aux17once_block_sentry6commitEv(ptr noundef nonnull align 8 dereferenceable(8) %1) #14
  %19 = load ptr, ptr %1, align 8, !tbaa !29
  %20 = load i8, ptr %19, align 1, !tbaa !26
  %21 = icmp eq i8 %20, 2
  br i1 %21, label %_ZN5boost3log11v2_mt_posix3aux17once_block_sentryD2Ev.exit, label %_ZNK5boost3log11v2_mt_posix3aux17once_block_sentry8executedEv.exit, !llvm.loop !35

22:                                               ; preds = %_ZN5boost3log11v2_mt_posix3aux17once_block_sentryD2Ev.exit
  %23 = call noalias noundef nonnull dereferenceable(8) ptr @_Znwm(i64 noundef 8) #18
  %24 = tail call i64 @pthread_self() #19
  store i64 %24, ptr %23, align 8
  %25 = load i32, ptr @_ZN5boost3log11v2_mt_posix3aux11this_thread9anonymous5g_keyE, align 4, !tbaa !32
  %26 = call i32 @pthread_setspecific(i32 noundef %25, ptr noundef nonnull %23) #14
  br label %27

27:                                               ; preds = %22, %_ZN5boost3log11v2_mt_posix3aux17once_block_sentryD2Ev.exit
  %.0 = phi ptr [ %23, %22 ], [ %8, %_ZN5boost3log11v2_mt_posix3aux17once_block_sentryD2Ev.exit ]
  ret ptr %.0
}